; Function Attrs: nounwind uwtable
define dso_local { i64, ptr } @jv_array() local_unnamed_addr #2 {
  %1 = tail call ptr @jv_mem_alloc(i64 noundef 272) #25
  store i32 1, ptr %1, align 8, !tbaa !9
  %2 = getelementptr inbounds nuw i8, ptr %1, i64 4
  store i32 0, ptr %2, align 4, !tbaa !4
  %3 = getelementptr inbounds nuw i8, ptr %1, i64 8
  store i32 16, ptr %3, align 8, !tbaa !4
  %.fca.1.insert.i.i = insertvalue { i64, ptr } { i64 134, ptr poison }, ptr %1, 1
  ret { i64, ptr } %.fca.1.insert.i.i
}